target datalayout = "e-m:e-p270:32:32-p271:32:32-p272:64:64-i64:64-i128:128-f80:128-n8:16:32:64-S128"
target triple = "x86_64-pc-linux-gnu"

%struct.yyguts_t = type { ptr, ptr, ptr, i64, i64, ptr, i8, i32, i32, ptr, i32, i32, i32, i32, i32, ptr, i32, ptr, i32, i32, ptr, i32, i32 }
%struct.yy_buffer_state = type { ptr, ptr, ptr, i32, i32, i32, i32, i32, i32, i32, i32, i32 }

@.str.2 = private unnamed_addr constant [44 x i8] c"out of dynamic memory in yy_create_buffer()\00", align 1
@.str.13 = private unnamed_addr constant [49 x i8] c"out of dynamic memory in yyensure_buffer_stack()\00", align 1

; Function Attrs: mustprogress nounwind uwtable
define dso_local noundef ptr @_Z31cmCTestResourceGroups_yyreallocPvmS_(ptr noundef %0, i64 noundef %1, ptr noundef %2) #6 {
  %4 = alloca ptr, align 8
  %5 = alloca i64, align 8
  %6 = alloca ptr, align 8
  %7 = alloca ptr, align 8
  store ptr %0, ptr %4, align 8, !tbaa !4
  store i64 %1, ptr %5, align 8, !tbaa !42
  store ptr %2, ptr %6, align 8, !tbaa !4
  call void @llvm.lifetime.start.p0(i64 8, ptr %7) #3
  %8 = load ptr, ptr %6, align 8, !tbaa !4
  store ptr %8, ptr %7, align 8, !tbaa !8
  %9 = load ptr, ptr %4, align 8, !tbaa !4
  %10 = load i64, ptr %5, align 8, !tbaa !42
  %11 = call ptr @realloc(ptr noundef %9, i64 noundef %10) #26
  call void @llvm.lifetime.end.p0(i64 8, ptr %7) #3
  ret ptr %11
}

; Function Attrs: mustprogress nounwind uwtable
define dso_local noundef ptr @_Z29cmCTestResourceGroups_yyallocmPv(i64 noundef %0, ptr noundef %1) #6 {
  %3 = alloca i64, align 8
  %4 = alloca ptr, align 8
  %5 = alloca ptr, align 8
  store i64 %0, ptr %3, align 8, !tbaa !42
  store ptr %1, ptr %4, align 8, !tbaa !4
  call void @llvm.lifetime.start.p0(i64 8, ptr %5) #3
  %6 = load ptr, ptr %4, align 8, !tbaa !4
  store ptr %6, ptr %5, align 8, !tbaa !8
  %7 = load i64, ptr %3, align 8, !tbaa !42
  %8 = call noalias ptr @malloc(i64 noundef %7) #24
  call void @llvm.lifetime.end.p0(i64 8, ptr %5) #3
  ret ptr %8
}

; Function Attrs: mustprogress nounwind uwtable
define internal void @_ZL42cmCTestResourceGroups_yy_load_buffer_statePv(ptr noundef %0) #6 {
  %2 = alloca ptr, align 8
  %3 = alloca ptr, align 8
  store ptr %0, ptr %2, align 8, !tbaa !4
  call void @llvm.lifetime.start.p0(i64 8, ptr %3) #3
  %4 = load ptr, ptr %2, align 8, !tbaa !4
  store ptr %4, ptr %3, align 8, !tbaa !8
  %5 = load ptr, ptr %3, align 8, !tbaa !8
  %6 = getelementptr inbounds nuw %struct.yyguts_t, ptr %5, i32 0, i32 5
  %7 = load ptr, ptr %6, align 8, !tbaa !23
  %8 = load ptr, ptr %3, align 8, !tbaa !8
  %9 = getelementptr inbounds nuw %struct.yyguts_t, ptr %8, i32 0, i32 3
  %10 = load i64, ptr %9, align 8, !tbaa !24
  %11 = getelementptr inbounds nuw ptr, ptr %7, i64 %10
  %12 = load ptr, ptr %11, align 8, !tbaa !25
  %13 = getelementptr inbounds nuw %struct.yy_buffer_state, ptr %12, i32 0, i32 4
  %14 = load i32, ptr %13, align 4, !tbaa !45
  %15 = load ptr, ptr %3, align 8, !tbaa !8
  %16 = getelementptr inbounds nuw %struct.yyguts_t, ptr %15, i32 0, i32 7
  store i32 %14, ptr %16, align 4, !tbaa !46
  %17 = load ptr, ptr %3, align 8, !tbaa !8
  %18 = getelementptr inbounds nuw %struct.yyguts_t, ptr %17, i32 0, i32 5
  %19 = load ptr, ptr %18, align 8, !tbaa !23
  %20 = load ptr, ptr %3, align 8, !tbaa !8
  %21 = getelementptr inbounds nuw %struct.yyguts_t, ptr %20, i32 0, i32 3
  %22 = load i64, ptr %21, align 8, !tbaa !24
  %23 = getelementptr inbounds nuw ptr, ptr %19, i64 %22
  %24 = load ptr, ptr %23, align 8, !tbaa !25
  %25 = getelementptr inbounds nuw %struct.yy_buffer_state, ptr %24, i32 0, i32 2
  %26 = load ptr, ptr %25, align 8, !tbaa !54
  %27 = load ptr, ptr %3, align 8, !tbaa !8
  %28 = getelementptr inbounds nuw %struct.yyguts_t, ptr %27, i32 0, i32 9
  store ptr %26, ptr %28, align 8, !tbaa !27
  %29 = load ptr, ptr %3, align 8, !tbaa !8
  %30 = getelementptr inbounds nuw %struct.yyguts_t, ptr %29, i32 0, i32 20
  store ptr %26, ptr %30, align 8, !tbaa !39
  %31 = load ptr, ptr %3, align 8, !tbaa !8
  %32 = getelementptr inbounds nuw %struct.yyguts_t, ptr %31, i32 0, i32 5
  %33 = load ptr, ptr %32, align 8, !tbaa !23
  %34 = load ptr, ptr %3, align 8, !tbaa !8
  %35 = getelementptr inbounds nuw %struct.yyguts_t, ptr %34, i32 0, i32 3
  %36 = load i64, ptr %35, align 8, !tbaa !24
  %37 = getelementptr inbounds nuw ptr, ptr %33, i64 %36
  %38 = load ptr, ptr %37, align 8, !tbaa !25
  %39 = getelementptr inbounds nuw %struct.yy_buffer_state, ptr %38, i32 0, i32 0
  %40 = load ptr, ptr %39, align 8, !tbaa !47
  %41 = load ptr, ptr %3, align 8, !tbaa !8
  %42 = getelementptr inbounds nuw %struct.yyguts_t, ptr %41, i32 0, i32 1
  store ptr %40, ptr %42, align 8, !tbaa !20
  %43 = load ptr, ptr %3, align 8, !tbaa !8
  %44 = getelementptr inbounds nuw %struct.yyguts_t, ptr %43, i32 0, i32 9
  %45 = load ptr, ptr %44, align 8, !tbaa !27
  %46 = load i8, ptr %45, align 1, !tbaa !30
  %47 = load ptr, ptr %3, align 8, !tbaa !8
  %48 = getelementptr inbounds nuw %struct.yyguts_t, ptr %47, i32 0, i32 6
  store i8 %46, ptr %48, align 8, !tbaa !29
  call void @llvm.lifetime.end.p0(i64 8, ptr %3) #3
  ret void
}

; Function Attrs: mustprogress uwtable
define dso_local noundef ptr @_Z38cmCTestResourceGroups_yy_create_bufferP8_IO_FILEiPv(ptr noundef %0, i32 noundef %1, ptr noundef %2) #4 {
  %4 = alloca ptr, align 8
  %5 = alloca i32, align 4
  %6 = alloca ptr, align 8
  %7 = alloca ptr, align 8
  store ptr %0, ptr %4, align 8, !tbaa !21
  store i32 %1, ptr %5, align 4, !tbaa !31
  store ptr %2, ptr %6, align 8, !tbaa !4
  call void @llvm.lifetime.start.p0(i64 8, ptr %7) #3
  %8 = load ptr, ptr %6, align 8, !tbaa !4
  %9 = call noundef ptr @_Z29cmCTestResourceGroups_yyallocmPv(i64 noundef 64, ptr noundef %8)
  store ptr %9, ptr %7, align 8, !tbaa !25
  %10 = load ptr, ptr %7, align 8, !tbaa !25
  %11 = icmp ne ptr %10, null
  br i1 %11, label %14, label %12

12:                                               ; preds = %3
  %13 = load ptr, ptr %6, align 8, !tbaa !4
  call void @_ZL14yy_fatal_errorPKcPv(ptr noundef @.str.2, ptr noundef %13) #21
  unreachable

14:                                               ; preds = %3
  %15 = load i32, ptr %5, align 4, !tbaa !31
  %16 = load ptr, ptr %7, align 8, !tbaa !25
  %17 = getelementptr inbounds nuw %struct.yy_buffer_state, ptr %16, i32 0, i32 3
  store i32 %15, ptr %17, align 8, !tbaa !52
  %18 = load ptr, ptr %7, align 8, !tbaa !25
  %19 = getelementptr inbounds nuw %struct.yy_buffer_state, ptr %18, i32 0, i32 3
  %20 = load i32, ptr %19, align 8, !tbaa !52
  %21 = add nsw i32 %20, 2
  %22 = sext i32 %21 to i64
  %23 = load ptr, ptr %6, align 8, !tbaa !4
  %24 = call noundef ptr @_Z29cmCTestResourceGroups_yyallocmPv(i64 noundef %22, ptr noundef %23)
  %25 = load ptr, ptr %7, align 8, !tbaa !25
  %26 = getelementptr inbounds nuw %struct.yy_buffer_state, ptr %25, i32 0, i32 1
  store ptr %24, ptr %26, align 8, !tbaa !48
  %27 = load ptr, ptr %7, align 8, !tbaa !25
  %28 = getelementptr inbounds nuw %struct.yy_buffer_state, ptr %27, i32 0, i32 1
  %29 = load ptr, ptr %28, align 8, !tbaa !48
  %30 = icmp ne ptr %29, null
  br i1 %30, label %33, label %31

31:                                               ; preds = %14
  %32 = load ptr, ptr %6, align 8, !tbaa !4
  call void @_ZL14yy_fatal_errorPKcPv(ptr noundef @.str.2, ptr noundef %32) #21
  unreachable

33:                                               ; preds = %14
  %34 = load ptr, ptr %7, align 8, !tbaa !25
  %35 = getelementptr inbounds nuw %struct.yy_buffer_state, ptr %34, i32 0, i32 5
  store i32 1, ptr %35, align 8, !tbaa !53
  %36 = load ptr, ptr %7, align 8, !tbaa !25
  %37 = load ptr, ptr %4, align 8, !tbaa !21
  %38 = load ptr, ptr %6, align 8, !tbaa !4
  call void @_ZL36cmCTestResourceGroups_yy_init_bufferP15yy_buffer_stateP8_IO_FILEPv(ptr noundef %36, ptr noundef %37, ptr noundef %38)
  %39 = load ptr, ptr %7, align 8, !tbaa !25
  call void @llvm.lifetime.end.p0(i64 8, ptr %7) #3
  ret ptr %39
}

; Function Attrs: mustprogress uwtable
define internal void @_ZL43cmCTestResourceGroups_yyensure_buffer_stackPv(ptr noundef %0) #4 {
  %2 = alloca ptr, align 8
  %3 = alloca i64, align 8
  %4 = alloca ptr, align 8
  %5 = alloca i32, align 4
  %6 = alloca i64, align 8
  store ptr %0, ptr %2, align 8, !tbaa !4
  call void @llvm.lifetime.start.p0(i64 8, ptr %3) #3
  call void @llvm.lifetime.start.p0(i64 8, ptr %4) #3
  %7 = load ptr, ptr %2, align 8, !tbaa !4
  store ptr %7, ptr %4, align 8, !tbaa !8
  %8 = load ptr, ptr %4, align 8, !tbaa !8
  %9 = getelementptr inbounds nuw %struct.yyguts_t, ptr %8, i32 0, i32 5
  %10 = load ptr, ptr %9, align 8, !tbaa !23
  %11 = icmp ne ptr %10, null
  br i1 %11, label %36, label %12

12:                                               ; preds = %1
  store i64 1, ptr %3, align 8, !tbaa !42
  %13 = load i64, ptr %3, align 8, !tbaa !42
  %14 = mul i64 %13, 8
  %15 = load ptr, ptr %2, align 8, !tbaa !4
  %16 = call noundef ptr @_Z29cmCTestResourceGroups_yyallocmPv(i64 noundef %14, ptr noundef %15)
  %17 = load ptr, ptr %4, align 8, !tbaa !8
  %18 = getelementptr inbounds nuw %struct.yyguts_t, ptr %17, i32 0, i32 5
  store ptr %16, ptr %18, align 8, !tbaa !23
  %19 = load ptr, ptr %4, align 8, !tbaa !8
  %20 = getelementptr inbounds nuw %struct.yyguts_t, ptr %19, i32 0, i32 5
  %21 = load ptr, ptr %20, align 8, !tbaa !23
  %22 = icmp ne ptr %21, null
  br i1 %22, label %25, label %23

23:                                               ; preds = %12
  %24 = load ptr, ptr %2, align 8, !tbaa !4
  call void @_ZL14yy_fatal_errorPKcPv(ptr noundef @.str.13, ptr noundef %24) #21
  unreachable

25:                                               ; preds = %12
  %26 = load ptr, ptr %4, align 8, !tbaa !8
  %27 = getelementptr inbounds nuw %struct.yyguts_t, ptr %26, i32 0, i32 5
  %28 = load ptr, ptr %27, align 8, !tbaa !23
  %29 = load i64, ptr %3, align 8, !tbaa !42
  %30 = mul i64 %29, 8
  call void @llvm.memset.p0.i64(ptr align 8 %28, i8 0, i64 %30, i1 false)
  %31 = load i64, ptr %3, align 8, !tbaa !42
  %32 = load ptr, ptr %4, align 8, !tbaa !8
  %33 = getelementptr inbounds nuw %struct.yyguts_t, ptr %32, i32 0, i32 4
  store i64 %31, ptr %33, align 8, !tbaa !51
  %34 = load ptr, ptr %4, align 8, !tbaa !8
  %35 = getelementptr inbounds nuw %struct.yyguts_t, ptr %34, i32 0, i32 3
  store i64 0, ptr %35, align 8, !tbaa !24
  store i32 1, ptr %5, align 4
  br label %80

36:                                               ; preds = %1
  %37 = load ptr, ptr %4, align 8, !tbaa !8
  %38 = getelementptr inbounds nuw %struct.yyguts_t, ptr %37, i32 0, i32 3
  %39 = load i64, ptr %38, align 8, !tbaa !24
  %40 = load ptr, ptr %4, align 8, !tbaa !8
  %41 = getelementptr inbounds nuw %struct.yyguts_t, ptr %40, i32 0, i32 4
  %42 = load i64, ptr %41, align 8, !tbaa !51
  %43 = sub i64 %42, 1
  %44 = icmp uge i64 %39, %43
  br i1 %44, label %45, label %79

45:                                               ; preds = %36
  call void @llvm.lifetime.start.p0(i64 8, ptr %6) #3
  store i64 8, ptr %6, align 8, !tbaa !42
  %46 = load ptr, ptr %4, align 8, !tbaa !8
  %47 = getelementptr inbounds nuw %struct.yyguts_t, ptr %46, i32 0, i32 4
  %48 = load i64, ptr %47, align 8, !tbaa !51
  %49 = load i64, ptr %6, align 8, !tbaa !42
  %50 = add i64 %48, %49
  store i64 %50, ptr %3, align 8, !tbaa !42
  %51 = load ptr, ptr %4, align 8, !tbaa !8
  %52 = getelementptr inbounds nuw %struct.yyguts_t, ptr %51, i32 0, i32 5
  %53 = load ptr, ptr %52, align 8, !tbaa !23
  %54 = load i64, ptr %3, align 8, !tbaa !42
  %55 = mul i64 %54, 8
  %56 = load ptr, ptr %2, align 8, !tbaa !4
  %57 = call noundef ptr @_Z31cmCTestResourceGroups_yyreallocPvmS_(ptr noundef %53, i64 noundef %55, ptr noundef %56)
  %58 = load ptr, ptr %4, align 8, !tbaa !8
  %59 = getelementptr inbounds nuw %struct.yyguts_t, ptr %58, i32 0, i32 5
  store ptr %57, ptr %59, align 8, !tbaa !23
  %60 = load ptr, ptr %4, align 8, !tbaa !8
  %61 = getelementptr inbounds nuw %struct.yyguts_t, ptr %60, i32 0, i32 5
  %62 = load ptr, ptr %61, align 8, !tbaa !23
  %63 = icmp ne ptr %62, null
  br i1 %63, label %66, label %64

64:                                               ; preds = %45
  %65 = load ptr, ptr %2, align 8, !tbaa !4
  call void @_ZL14yy_fatal_errorPKcPv(ptr noundef @.str.13, ptr noundef %65) #21
  unreachable

66:                                               ; preds = %45
  %67 = load ptr, ptr %4, align 8, !tbaa !8
  %68 = getelementptr inbounds nuw %struct.yyguts_t, ptr %67, i32 0, i32 5
  %69 = load ptr, ptr %68, align 8, !tbaa !23
  %70 = load ptr, ptr %4, align 8, !tbaa !8
  %71 = getelementptr inbounds nuw %struct.yyguts_t, ptr %70, i32 0, i32 4
  %72 = load i64, ptr %71, align 8, !tbaa !51
  %73 = getelementptr inbounds nuw ptr, ptr %69, i64 %72
  %74 = load i64, ptr %6, align 8, !tbaa !42
  %75 = mul i64 %74, 8
  call void @llvm.memset.p0.i64(ptr align 8 %73, i8 0, i64 %75, i1 false)
  %76 = load i64, ptr %3, align 8, !tbaa !42
  %77 = load ptr, ptr %4, align 8, !tbaa !8
  %78 = getelementptr inbounds nuw %struct.yyguts_t, ptr %77, i32 0, i32 4
  store i64 %76, ptr %78, align 8, !tbaa !51
  call void @llvm.lifetime.end.p0(i64 8, ptr %6) #3
  br label %79

79:                                               ; preds = %66, %36
  store i32 0, ptr %5, align 4
  br label %80

80:                                               ; preds = %79, %25
  call void @llvm.lifetime.end.p0(i64 8, ptr %4) #3
  call void @llvm.lifetime.end.p0(i64 8, ptr %3) #3
  %81 = load i32, ptr %5, align 4
  switch i32 %81, label %83 [
    i32 0, label %82
    i32 1, label %82
  ]

82:                                               ; preds = %80, %80
  ret void

83:                                               ; preds = %80
  unreachable
}

; Function Attrs: mustprogress uwtable
define dso_local void @_Z31cmCTestResourceGroups_yyrestartP8_IO_FILEPv(ptr noundef %0, ptr noundef %1) #4 {
  %3 = alloca ptr, align 8
  %4 = alloca ptr, align 8
  %5 = alloca ptr, align 8
  store ptr %0, ptr %3, align 8, !tbaa !21
  store ptr %1, ptr %4, align 8, !tbaa !4
  call void @llvm.lifetime.start.p0(i64 8, ptr %5) #3
  %6 = load ptr, ptr %4, align 8, !tbaa !4
  store ptr %6, ptr %5, align 8, !tbaa !8
  %7 = load ptr, ptr %5, align 8, !tbaa !8
  %8 = getelementptr inbounds nuw %struct.yyguts_t, ptr %7, i32 0, i32 5
  %9 = load ptr, ptr %8, align 8, !tbaa !23
  %10 = icmp ne ptr %9, null
  br i1 %10, label %11, label %20

11:                                               ; preds = %2
  %12 = load ptr, ptr %5, align 8, !tbaa !8
  %13 = getelementptr inbounds nuw %struct.yyguts_t, ptr %12, i32 0, i32 5
  %14 = load ptr, ptr %13, align 8, !tbaa !23
  %15 = load ptr, ptr %5, align 8, !tbaa !8
  %16 = getelementptr inbounds nuw %struct.yyguts_t, ptr %15, i32 0, i32 3
  %17 = load i64, ptr %16, align 8, !tbaa !24
  %18 = getelementptr inbounds nuw ptr, ptr %14, i64 %17
  %19 = load ptr, ptr %18, align 8, !tbaa !25
  br label %21

20:                                               ; preds = %2
  br label %21

21:                                               ; preds = %20, %11
  %22 = phi ptr [ %19, %11 ], [ null, %20 ]
  %23 = icmp ne ptr %22, null
  br i1 %23, label %38, label %24

24:                                               ; preds = %21
  %25 = load ptr, ptr %4, align 8, !tbaa !4
  call void @_ZL43cmCTestResourceGroups_yyensure_buffer_stackPv(ptr noundef %25)
  %26 = load ptr, ptr %5, align 8, !tbaa !8
  %27 = getelementptr inbounds nuw %struct.yyguts_t, ptr %26, i32 0, i32 1
  %28 = load ptr, ptr %27, align 8, !tbaa !20
  %29 = load ptr, ptr %4, align 8, !tbaa !4
  %30 = call noundef ptr @_Z38cmCTestResourceGroups_yy_create_bufferP8_IO_FILEiPv(ptr noundef %28, i32 noundef 16384, ptr noundef %29)
  %31 = load ptr, ptr %5, align 8, !tbaa !8
  %32 = getelementptr inbounds nuw %struct.yyguts_t, ptr %31, i32 0, i32 5
  %33 = load ptr, ptr %32, align 8, !tbaa !23
  %34 = load ptr, ptr %5, align 8, !tbaa !8
  %35 = getelementptr inbounds nuw %struct.yyguts_t, ptr %34, i32 0, i32 3
  %36 = load i64, ptr %35, align 8, !tbaa !24
  %37 = getelementptr inbounds nuw ptr, ptr %33, i64 %36
  store ptr %30, ptr %37, align 8, !tbaa !25
  br label %38

38:                                               ; preds = %24, %21
  %39 = load ptr, ptr %5, align 8, !tbaa !8
  %40 = getelementptr inbounds nuw %struct.yyguts_t, ptr %39, i32 0, i32 5
  %41 = load ptr, ptr %40, align 8, !tbaa !23
  %42 = icmp ne ptr %41, null
  br i1 %42, label %43, label %52

43:                                               ; preds = %38
  %44 = load ptr, ptr %5, align 8, !tbaa !8
  %45 = getelementptr inbounds nuw %struct.yyguts_t, ptr %44, i32 0, i32 5
  %46 = load ptr, ptr %45, align 8, !tbaa !23
  %47 = load ptr, ptr %5, align 8, !tbaa !8
  %48 = getelementptr inbounds nuw %struct.yyguts_t, ptr %47, i32 0, i32 3
  %49 = load i64, ptr %48, align 8, !tbaa !24
  %50 = getelementptr inbounds nuw ptr, ptr %46, i64 %49
  %51 = load ptr, ptr %50, align 8, !tbaa !25
  br label %53

52:                                               ; preds = %38
  br label %53

53:                                               ; preds = %52, %43
  %54 = phi ptr [ %51, %43 ], [ null, %52 ]
  %55 = load ptr, ptr %3, align 8, !tbaa !21
  %56 = load ptr, ptr %4, align 8, !tbaa !4
  call void @_ZL36cmCTestResourceGroups_yy_init_bufferP15yy_buffer_stateP8_IO_FILEPv(ptr noundef %54, ptr noundef %55, ptr noundef %56)
  %57 = load ptr, ptr %4, align 8, !tbaa !4
  call void @_ZL42cmCTestResourceGroups_yy_load_buffer_statePv(ptr noundef %57)
  call void @llvm.lifetime.end.p0(i64 8, ptr %5) #3
  ret void
}